target datalayout = "e-m:e-p270:32:32-p271:32:32-p272:64:64-i64:64-i128:128-f80:128-n8:16:32:64-S128"
target triple = "x86_64-pc-linux-gnu"

%struct.H264RawNALUnitHeader = type { i8, i8, i8, i8 }
%struct.H264RawSPS = type { %struct.H264RawNALUnitHeader, i8, i8, i8, i8, i8, i8, i8, i8, i8, i8, i8, i8, i8, i8, i8, i8, [12 x i8], [6 x %struct.H264RawScalingList], [6 x %struct.H264RawScalingList], i8, i8, i8, i8, i32, i32, i8, [256 x i32], i8, i8, i16, i16, i8, i8, i8, i8, i16, i16, i16, i16, i8, %struct.H264RawVUI }
%struct.H264RawScalingList = type { [64 x i8] }
%struct.H264RawVUI = type { i8, i8, i16, i16, i8, i8, i8, i8, i8, i8, i8, i8, i8, i8, i8, i8, i8, i32, i32, i8, i8, %struct.H264RawHRD, i8, %struct.H264RawHRD, i8, i8, i8, i8, i8, i8, i8, i8, i8, i8 }
%struct.H264RawHRD = type { i8, i8, i8, [32 x i32], [32 x i32], [32 x i8], i8, i8, i8, i8 }

; Function Attrs: nounwind uwtable
define internal i32 @cbs_h264_read_vui_parameters_default(ptr noundef %0, ptr noundef %1, ptr noundef %2, ptr noundef %3) #0 {
  %5 = alloca ptr, align 8
  %6 = alloca ptr, align 8
  %7 = alloca ptr, align 8
  %8 = alloca ptr, align 8
  store ptr %0, ptr %5, align 8, !tbaa !4
  store ptr %1, ptr %6, align 8, !tbaa !196
  store ptr %2, ptr %7, align 8, !tbaa !331
  store ptr %3, ptr %8, align 8, !tbaa !55
  br label %9

9:                                                ; preds = %4
  %10 = load ptr, ptr %7, align 8, !tbaa !331
  %11 = getelementptr inbounds nuw %struct.H264RawVUI, ptr %10, i32 0, i32 1
  store i8 0, ptr %11, align 1, !tbaa !334
  br label %12

12:                                               ; preds = %9
  br label %13

13:                                               ; preds = %12
  %14 = load ptr, ptr %7, align 8, !tbaa !331
  %15 = getelementptr inbounds nuw %struct.H264RawVUI, ptr %14, i32 0, i32 7
  store i8 5, ptr %15, align 1, !tbaa !340
  br label %16

16:                                               ; preds = %13
  br label %17

17:                                               ; preds = %16
  %18 = load ptr, ptr %7, align 8, !tbaa !331
  %19 = getelementptr inbounds nuw %struct.H264RawVUI, ptr %18, i32 0, i32 8
  store i8 0, ptr %19, align 2, !tbaa !341
  br label %20

20:                                               ; preds = %17
  br label %21

21:                                               ; preds = %20
  %22 = load ptr, ptr %7, align 8, !tbaa !331
  %23 = getelementptr inbounds nuw %struct.H264RawVUI, ptr %22, i32 0, i32 10
  store i8 2, ptr %23, align 4, !tbaa !343
  br label %24

24:                                               ; preds = %21
  br label %25

25:                                               ; preds = %24
  %26 = load ptr, ptr %7, align 8, !tbaa !331
  %27 = getelementptr inbounds nuw %struct.H264RawVUI, ptr %26, i32 0, i32 11
  store i8 2, ptr %27, align 1, !tbaa !344
  br label %28

28:                                               ; preds = %25
  br label %29

29:                                               ; preds = %28
  %30 = load ptr, ptr %7, align 8, !tbaa !331
  %31 = getelementptr inbounds nuw %struct.H264RawVUI, ptr %30, i32 0, i32 12
  store i8 2, ptr %31, align 2, !tbaa !345
  br label %32

32:                                               ; preds = %29
  br label %33

33:                                               ; preds = %32
  %34 = load ptr, ptr %7, align 8, !tbaa !331
  %35 = getelementptr inbounds nuw %struct.H264RawVUI, ptr %34, i32 0, i32 14
  store i8 0, ptr %35, align 4, !tbaa !347
  br label %36

36:                                               ; preds = %33
  br label %37

37:                                               ; preds = %36
  %38 = load ptr, ptr %7, align 8, !tbaa !331
  %39 = getelementptr inbounds nuw %struct.H264RawVUI, ptr %38, i32 0, i32 15
  store i8 0, ptr %39, align 1, !tbaa !348
  br label %40

40:                                               ; preds = %37
  br label %41

41:                                               ; preds = %40
  %42 = load ptr, ptr %7, align 8, !tbaa !331
  %43 = getelementptr inbounds nuw %struct.H264RawVUI, ptr %42, i32 0, i32 19
  store i8 0, ptr %43, align 4, !tbaa !352
  br label %44

44:                                               ; preds = %41
  br label %45

45:                                               ; preds = %44
  %46 = load ptr, ptr %7, align 8, !tbaa !331
  %47 = getelementptr inbounds nuw %struct.H264RawVUI, ptr %46, i32 0, i32 24
  store i8 1, ptr %47, align 4, !tbaa !355
  br label %48

48:                                               ; preds = %45
  br label %49

49:                                               ; preds = %48
  %50 = load ptr, ptr %7, align 8, !tbaa !331
  %51 = getelementptr inbounds nuw %struct.H264RawVUI, ptr %50, i32 0, i32 25
  store i8 0, ptr %51, align 1, !tbaa !356
  br label %52

52:                                               ; preds = %49
  br label %53

53:                                               ; preds = %52
  %54 = load ptr, ptr %7, align 8, !tbaa !331
  %55 = getelementptr inbounds nuw %struct.H264RawVUI, ptr %54, i32 0, i32 27
  store i8 1, ptr %55, align 1, !tbaa !358
  br label %56

56:                                               ; preds = %53
  br label %57

57:                                               ; preds = %56
  %58 = load ptr, ptr %7, align 8, !tbaa !331
  %59 = getelementptr inbounds nuw %struct.H264RawVUI, ptr %58, i32 0, i32 28
  store i8 2, ptr %59, align 4, !tbaa !359
  br label %60

60:                                               ; preds = %57
  br label %61

61:                                               ; preds = %60
  %62 = load ptr, ptr %7, align 8, !tbaa !331
  %63 = getelementptr inbounds nuw %struct.H264RawVUI, ptr %62, i32 0, i32 29
  store i8 1, ptr %63, align 1, !tbaa !360
  br label %64

64:                                               ; preds = %61
  br label %65

65:                                               ; preds = %64
  %66 = load ptr, ptr %7, align 8, !tbaa !331
  %67 = getelementptr inbounds nuw %struct.H264RawVUI, ptr %66, i32 0, i32 30
  store i8 15, ptr %67, align 2, !tbaa !361
  br label %68

68:                                               ; preds = %65
  br label %69

69:                                               ; preds = %68
  %70 = load ptr, ptr %7, align 8, !tbaa !331
  %71 = getelementptr inbounds nuw %struct.H264RawVUI, ptr %70, i32 0, i32 31
  store i8 15, ptr %71, align 1, !tbaa !362
  br label %72

72:                                               ; preds = %69
  %73 = load ptr, ptr %8, align 8, !tbaa !55
  %74 = getelementptr inbounds nuw %struct.H264RawSPS, ptr %73, i32 0, i32 1
  %75 = load i8, ptr %74, align 4, !tbaa !203
  %76 = zext i8 %75 to i32
  %77 = icmp eq i32 %76, 44
  br i1 %77, label %108, label %78

78:                                               ; preds = %72
  %79 = load ptr, ptr %8, align 8, !tbaa !55
  %80 = getelementptr inbounds nuw %struct.H264RawSPS, ptr %79, i32 0, i32 1
  %81 = load i8, ptr %80, align 4, !tbaa !203
  %82 = zext i8 %81 to i32
  %83 = icmp eq i32 %82, 86
  br i1 %83, label %108, label %84

84:                                               ; preds = %78
  %85 = load ptr, ptr %8, align 8, !tbaa !55
  %86 = getelementptr inbounds nuw %struct.H264RawSPS, ptr %85, i32 0, i32 1
  %87 = load i8, ptr %86, align 4, !tbaa !203
  %88 = zext i8 %87 to i32
  %89 = icmp eq i32 %88, 100
  br i1 %89, label %108, label %90

90:                                               ; preds = %84
  %91 = load ptr, ptr %8, align 8, !tbaa !55
  %92 = getelementptr inbounds nuw %struct.H264RawSPS, ptr %91, i32 0, i32 1
  %93 = load i8, ptr %92, align 4, !tbaa !203
  %94 = zext i8 %93 to i32
  %95 = icmp eq i32 %94, 110
  br i1 %95, label %108, label %96

96:                                               ; preds = %90
  %97 = load ptr, ptr %8, align 8, !tbaa !55
  %98 = getelementptr inbounds nuw %struct.H264RawSPS, ptr %97, i32 0, i32 1
  %99 = load i8, ptr %98, align 4, !tbaa !203
  %100 = zext i8 %99 to i32
  %101 = icmp eq i32 %100, 122
  br i1 %101, label %108, label %102

102:                                              ; preds = %96
  %103 = load ptr, ptr %8, align 8, !tbaa !55
  %104 = getelementptr inbounds nuw %struct.H264RawSPS, ptr %103, i32 0, i32 1
  %105 = load i8, ptr %104, align 4, !tbaa !203
  %106 = zext i8 %105 to i32
  %107 = icmp eq i32 %106, 244
  br i1 %107, label %108, label %123

108:                                              ; preds = %102, %96, %90, %84, %78, %72
  %109 = load ptr, ptr %8, align 8, !tbaa !55
  %110 = getelementptr inbounds nuw %struct.H264RawSPS, ptr %109, i32 0, i32 5
  %111 = load i8, ptr %110, align 4, !tbaa !210
  %112 = zext i8 %111 to i32
  %113 = icmp ne i32 %112, 0
  br i1 %113, label %114, label %123

114:                                              ; preds = %108
  br label %115

115:                                              ; preds = %114
  %116 = load ptr, ptr %7, align 8, !tbaa !331
  %117 = getelementptr inbounds nuw %struct.H264RawVUI, ptr %116, i32 0, i32 32
  store i8 0, ptr %117, align 4, !tbaa !363
  br label %118

118:                                              ; preds = %115
  br label %119

119:                                              ; preds = %118
  %120 = load ptr, ptr %7, align 8, !tbaa !331
  %121 = getelementptr inbounds nuw %struct.H264RawVUI, ptr %120, i32 0, i32 33
  store i8 0, ptr %121, align 1, !tbaa !364
  br label %122

122:                                              ; preds = %119
  br label %132

123:                                              ; preds = %108, %102
  br label %124

124:                                              ; preds = %123
  %125 = load ptr, ptr %7, align 8, !tbaa !331
  %126 = getelementptr inbounds nuw %struct.H264RawVUI, ptr %125, i32 0, i32 32
  store i8 16, ptr %126, align 4, !tbaa !363
  br label %127

127:                                              ; preds = %124
  br label %128

128:                                              ; preds = %127
  %129 = load ptr, ptr %7, align 8, !tbaa !331
  %130 = getelementptr inbounds nuw %struct.H264RawVUI, ptr %129, i32 0, i32 33
  store i8 16, ptr %130, align 1, !tbaa !364
  br label %131

131:                                              ; preds = %128
  br label %132

132:                                              ; preds = %131, %122
  ret i32 0
}