; Function Attrs: mustprogress nofree norecurse nosync nounwind willreturn memory(argmem: readwrite) uwtable
define internal fastcc void @cbs_h264_read_vui_parameters_default(ptr noundef writeonly captures(none) initializes((1, 2), (9, 11), (12, 15), (16, 18), (28, 29), (628, 630), (631, 638)) %0, ptr noundef readonly captures(none) %1) unnamed_addr #6 {
  %3 = getelementptr inbounds nuw i8, ptr %0, i64 1
  store i8 0, ptr %3, align 1, !tbaa !834
  %4 = getelementptr inbounds nuw i8, ptr %0, i64 9
  store i8 5, ptr %4, align 1, !tbaa !840
  %5 = getelementptr inbounds nuw i8, ptr %0, i64 10
  store i8 0, ptr %5, align 2, !tbaa !841
  %6 = getelementptr inbounds nuw i8, ptr %0, i64 12
  store i8 2, ptr %6, align 4, !tbaa !843
  %7 = getelementptr inbounds nuw i8, ptr %0, i64 13
  store i8 2, ptr %7, align 1, !tbaa !844
  %8 = getelementptr inbounds nuw i8, ptr %0, i64 14
  store i8 2, ptr %8, align 2, !tbaa !845
  %9 = getelementptr inbounds nuw i8, ptr %0, i64 16
  store i8 0, ptr %9, align 4, !tbaa !847
  %10 = getelementptr inbounds nuw i8, ptr %0, i64 17
  store i8 0, ptr %10, align 1, !tbaa !848
  %11 = getelementptr inbounds nuw i8, ptr %0, i64 28
  store i8 0, ptr %11, align 4, !tbaa !852
  %12 = getelementptr inbounds nuw i8, ptr %0, i64 628
  store i8 1, ptr %12, align 4, !tbaa !855
  %13 = getelementptr inbounds nuw i8, ptr %0, i64 629
  store i8 0, ptr %13, align 1, !tbaa !856
  %14 = getelementptr inbounds nuw i8, ptr %0, i64 631
  store i8 1, ptr %14, align 1, !tbaa !858
  %15 = getelementptr inbounds nuw i8, ptr %0, i64 632
  store i8 2, ptr %15, align 4, !tbaa !859
  %16 = getelementptr inbounds nuw i8, ptr %0, i64 633
  store i8 1, ptr %16, align 1, !tbaa !860
  %17 = getelementptr inbounds nuw i8, ptr %0, i64 634
  store i8 15, ptr %17, align 2, !tbaa !861
  %18 = getelementptr inbounds nuw i8, ptr %0, i64 635
  store i8 15, ptr %18, align 1, !tbaa !862
  %19 = getelementptr inbounds nuw i8, ptr %1, i64 4
  %20 = load i8, ptr %19, align 4, !tbaa !64
  switch i8 %20, label %24 [
    i8 44, label %21
    i8 86, label %21
    i8 100, label %21
    i8 110, label %21
    i8 122, label %21
    i8 -12, label %21
  ]

21:                                               ; preds = %2, %2, %2, %2, %2, %2
  %22 = getelementptr inbounds nuw i8, ptr %1, i64 8
  %23 = load i8, ptr %22, align 4, !tbaa !73
  %.not = icmp eq i8 %23, 0
  br i1 %.not, label %24, label %25

24:                                               ; preds = %2, %21
  br label %25

25:                                               ; preds = %21, %24
  %.sink2 = phi i8 [ 16, %24 ], [ 0, %21 ]
  %26 = getelementptr inbounds nuw i8, ptr %0, i64 636
  store i8 %.sink2, ptr %26, align 4, !tbaa !863
  %27 = getelementptr inbounds nuw i8, ptr %0, i64 637
  store i8 %.sink2, ptr %27, align 1, !tbaa !864
  ret void
}